; Function Attrs: mustprogress uwtable
define void @_ZNK8QuantLib27MultiProductPathwiseWrapper19suggestedNumerairesEv(ptr dead_on_unwind noalias writable sret(%"class.std::vector.18") align 8 %agg.result, ptr nocapture noundef nonnull readonly align 8 dereferenceable(48) %this) unnamed_addr #0 align 2 {
entry:
  %innerProduct_ = getelementptr inbounds nuw i8, ptr %this, i64 8
  %0 = load ptr, ptr %innerProduct_, align 8, !tbaa !6
  %vtable = load ptr, ptr %0, align 8, !tbaa !3
  %vfn = getelementptr inbounds i8, ptr %vtable, i64 16
  %1 = load ptr, ptr %vfn, align 8
  tail call void %1(ptr dead_on_unwind writable sret(%"class.std::vector.18") align 8 %agg.result, ptr noundef nonnull align 8 dereferenceable(8) %0)
  ret void
}